target datalayout = "e-m:e-p270:32:32-p271:32:32-p272:64:64-i64:64-i128:128-f80:128-n8:16:32:64-S128"
target triple = "x86_64-pc-linux-gnu"

@.str.8 = private unnamed_addr constant [30 x i8] c"Assertion %s failed at %s:%d\0A\00", align 1
@.str.10 = private unnamed_addr constant [16 x i8] c"libavutil/opt.c\00", align 1
@.str.60 = private unnamed_addr constant [11 x i8] c"size >= 25\00", align 1
@.str.61 = private unnamed_addr constant [10 x i8] c"INT64_MAX\00", align 1
@.str.62 = private unnamed_addr constant [10 x i8] c"INT64_MIN\00", align 1
@.str.63 = private unnamed_addr constant [19 x i8] c"%ld:%02d:%02d.%06d\00", align 1
@.str.64 = private unnamed_addr constant [13 x i8] c"%d:%02d.%06d\00", align 1
@.str.65 = private unnamed_addr constant [8 x i8] c"%d.%06d\00", align 1

; Function Attrs: nounwind uwtable
define internal void @format_duration(ptr noundef %0, i64 noundef %1, i64 noundef %2) #0 {
  %4 = alloca ptr, align 8
  %5 = alloca i64, align 8
  %6 = alloca i64, align 8
  %7 = alloca ptr, align 8
  store ptr %0, ptr %4, align 8, !tbaa !19
  store i64 %1, ptr %5, align 8, !tbaa !39
  store i64 %2, ptr %6, align 8, !tbaa !39
  call void @llvm.lifetime.start.p0(i64 8, ptr %7) #11
  br label %8

8:                                                ; preds = %3
  %9 = load i64, ptr %5, align 8, !tbaa !39
  %10 = icmp uge i64 %9, 25
  br i1 %10, label %12, label %11

11:                                               ; preds = %8
  call void (ptr, i32, ptr, ...) @av_log(ptr noundef null, i32 noundef 0, ptr noundef @.str.8, ptr noundef @.str.60, ptr noundef @.str.10, i32 noundef 1019)
  call void @abort() #14
  unreachable

12:                                               ; preds = %8
  br label %13

13:                                               ; preds = %12
  br label %14

14:                                               ; preds = %13
  %15 = load i64, ptr %6, align 8, !tbaa !39
  %16 = icmp slt i64 %15, 0
  br i1 %16, label %17, label %27

17:                                               ; preds = %14
  %18 = load i64, ptr %6, align 8, !tbaa !39
  %19 = icmp ne i64 %18, -9223372036854775808
  br i1 %19, label %20, label %27

20:                                               ; preds = %17
  %21 = load ptr, ptr %4, align 8, !tbaa !19
  %22 = getelementptr inbounds nuw i8, ptr %21, i32 1
  store ptr %22, ptr %4, align 8, !tbaa !19
  store i8 45, ptr %21, align 1, !tbaa !35
  %23 = load i64, ptr %5, align 8, !tbaa !39
  %24 = add i64 %23, -1
  store i64 %24, ptr %5, align 8, !tbaa !39
  %25 = load i64, ptr %6, align 8, !tbaa !39
  %26 = sub nsw i64 0, %25
  store i64 %26, ptr %6, align 8, !tbaa !39
  br label %27

27:                                               ; preds = %20, %17, %14
  %28 = load i64, ptr %6, align 8, !tbaa !39
  %29 = icmp eq i64 %28, 9223372036854775807
  br i1 %29, label %30, label %34

30:                                               ; preds = %27
  %31 = load ptr, ptr %4, align 8, !tbaa !19
  %32 = load i64, ptr %5, align 8, !tbaa !39
  %33 = call i32 (ptr, i64, ptr, ...) @snprintf(ptr noundef %31, i64 noundef %32, ptr noundef @.str.61) #11
  br label %91

34:                                               ; preds = %27
  %35 = load i64, ptr %6, align 8, !tbaa !39
  %36 = icmp eq i64 %35, -9223372036854775808
  br i1 %36, label %37, label %41

37:                                               ; preds = %34
  %38 = load ptr, ptr %4, align 8, !tbaa !19
  %39 = load i64, ptr %5, align 8, !tbaa !39
  %40 = call i32 (ptr, i64, ptr, ...) @snprintf(ptr noundef %38, i64 noundef %39, ptr noundef @.str.62) #11
  br label %90

41:                                               ; preds = %34
  %42 = load i64, ptr %6, align 8, !tbaa !39
  %43 = icmp sgt i64 %42, 3600000000
  br i1 %43, label %44, label %61

44:                                               ; preds = %41
  %45 = load ptr, ptr %4, align 8, !tbaa !19
  %46 = load i64, ptr %5, align 8, !tbaa !39
  %47 = load i64, ptr %6, align 8, !tbaa !39
  %48 = sdiv i64 %47, 3600000000
  %49 = load i64, ptr %6, align 8, !tbaa !39
  %50 = sdiv i64 %49, 60000000
  %51 = srem i64 %50, 60
  %52 = trunc i64 %51 to i32
  %53 = load i64, ptr %6, align 8, !tbaa !39
  %54 = sdiv i64 %53, 1000000
  %55 = srem i64 %54, 60
  %56 = trunc i64 %55 to i32
  %57 = load i64, ptr %6, align 8, !tbaa !39
  %58 = srem i64 %57, 1000000
  %59 = trunc i64 %58 to i32
  %60 = call i32 (ptr, i64, ptr, ...) @snprintf(ptr noundef %45, i64 noundef %46, ptr noundef @.str.63, i64 noundef %48, i32 noundef %52, i32 noundef %56, i32 noundef %59) #11
  br label %89

61:                                               ; preds = %41
  %62 = load i64, ptr %6, align 8, !tbaa !39
  %63 = icmp sgt i64 %62, 60000000
  br i1 %63, label %64, label %78

64:                                               ; preds = %61
  %65 = load ptr, ptr %4, align 8, !tbaa !19
  %66 = load i64, ptr %5, align 8, !tbaa !39
  %67 = load i64, ptr %6, align 8, !tbaa !39
  %68 = sdiv i64 %67, 60000000
  %69 = trunc i64 %68 to i32
  %70 = load i64, ptr %6, align 8, !tbaa !39
  %71 = sdiv i64 %70, 1000000
  %72 = srem i64 %71, 60
  %73 = trunc i64 %72 to i32
  %74 = load i64, ptr %6, align 8, !tbaa !39
  %75 = srem i64 %74, 1000000
  %76 = trunc i64 %75 to i32
  %77 = call i32 (ptr, i64, ptr, ...) @snprintf(ptr noundef %65, i64 noundef %66, ptr noundef @.str.64, i32 noundef %69, i32 noundef %73, i32 noundef %76) #11
  br label %88

78:                                               ; preds = %61
  %79 = load ptr, ptr %4, align 8, !tbaa !19
  %80 = load i64, ptr %5, align 8, !tbaa !39
  %81 = load i64, ptr %6, align 8, !tbaa !39
  %82 = sdiv i64 %81, 1000000
  %83 = trunc i64 %82 to i32
  %84 = load i64, ptr %6, align 8, !tbaa !39
  %85 = srem i64 %84, 1000000
  %86 = trunc i64 %85 to i32
  %87 = call i32 (ptr, i64, ptr, ...) @snprintf(ptr noundef %79, i64 noundef %80, ptr noundef @.str.65, i32 noundef %83, i32 noundef %86) #11
  br label %88

88:                                               ; preds = %78, %64
  br label %89

89:                                               ; preds = %88, %44
  br label %90

90:                                               ; preds = %89, %37
  br label %91

91:                                               ; preds = %90, %30
  %92 = load ptr, ptr %4, align 8, !tbaa !19
  %93 = load ptr, ptr %4, align 8, !tbaa !19
  %94 = call i64 @strlen(ptr noundef %93) #12
  %95 = getelementptr inbounds nuw i8, ptr %92, i64 %94
  store ptr %95, ptr %7, align 8, !tbaa !19
  br label %96

96:                                               ; preds = %108, %91
  %97 = load ptr, ptr %7, align 8, !tbaa !19
  %98 = load ptr, ptr %4, align 8, !tbaa !19
  %99 = icmp ugt ptr %97, %98
  br i1 %99, label %100, label %106

100:                                              ; preds = %96
  %101 = load ptr, ptr %7, align 8, !tbaa !19
  %102 = getelementptr inbounds i8, ptr %101, i64 -1
  %103 = load i8, ptr %102, align 1, !tbaa !35
  %104 = sext i8 %103 to i32
  %105 = icmp eq i32 %104, 48
  br label %106

106:                                              ; preds = %100, %96
  %107 = phi i1 [ false, %96 ], [ %105, %100 ]
  br i1 %107, label %108, label %111

108:                                              ; preds = %106
  %109 = load ptr, ptr %7, align 8, !tbaa !19
  %110 = getelementptr inbounds i8, ptr %109, i32 -1
  store ptr %110, ptr %7, align 8, !tbaa !19
  store i8 0, ptr %110, align 1, !tbaa !35
  br label %96, !llvm.loop !136

111:                                              ; preds = %106
  %112 = load ptr, ptr %7, align 8, !tbaa !19
  %113 = load ptr, ptr %4, align 8, !tbaa !19
  %114 = icmp ugt ptr %112, %113
  br i1 %114, label %115, label %124

115:                                              ; preds = %111
  %116 = load ptr, ptr %7, align 8, !tbaa !19
  %117 = getelementptr inbounds i8, ptr %116, i64 -1
  %118 = load i8, ptr %117, align 1, !tbaa !35
  %119 = sext i8 %118 to i32
  %120 = icmp eq i32 %119, 46
  br i1 %120, label %121, label %124

121:                                              ; preds = %115
  %122 = load ptr, ptr %7, align 8, !tbaa !19
  %123 = getelementptr inbounds i8, ptr %122, i32 -1
  store ptr %123, ptr %7, align 8, !tbaa !19
  store i8 0, ptr %123, align 1, !tbaa !35
  br label %124

124:                                              ; preds = %121, %115, %111
  call void @llvm.lifetime.end.p0(i64 8, ptr %7) #11
  ret void
}