; Function Attrs: nofree nounwind uwtable
define internal fastcc void @format_duration(ptr noundef captures(address) %0, i64 noundef range(i64 25, 129) %1, i64 noundef %2) unnamed_addr #14 {
  %or.cond = icmp ugt i64 %2, -9223372036854775808
  br i1 %or.cond, label %4, label %8

4:                                                ; preds = %3
  %5 = getelementptr inbounds nuw i8, ptr %0, i64 1
  store i8 45, ptr %0, align 1, !tbaa !29
  %6 = add nsw i64 %1, -1
  %7 = sub nsw i64 0, %2
  br label %8

8:                                                ; preds = %4, %3
  %.041 = phi ptr [ %5, %4 ], [ %0, %3 ]
  %.040 = phi i64 [ %6, %4 ], [ %1, %3 ]
  %.039 = phi i64 [ %7, %4 ], [ %2, %3 ]
  switch i64 %.039, label %13 [
    i64 9223372036854775807, label %9
    i64 -9223372036854775808, label %11
  ]

9:                                                ; preds = %8
  %10 = tail call i32 (ptr, i64, ptr, ...) @snprintf(ptr noundef %.041, i64 noundef %.040, ptr noundef nonnull @.str.61) #18
  br label %39

11:                                               ; preds = %8
  %12 = tail call i32 (ptr, i64, ptr, ...) @snprintf(ptr noundef %.041, i64 noundef %.040, ptr noundef nonnull @.str.62) #18
  br label %39

13:                                               ; preds = %8
  %14 = icmp samesign ugt i64 %.039, 3600000000
  br i1 %14, label %15, label %26

15:                                               ; preds = %13
  %16 = udiv i64 %.039, 3600000000
  %17 = udiv i64 %.039, 60000000
  %18 = urem i64 %17, 60
  %19 = trunc nuw nsw i64 %18 to i32
  %20 = udiv i64 %.039, 1000000
  %21 = urem i64 %20, 60
  %22 = trunc nuw nsw i64 %21 to i32
  %23 = urem i64 %.039, 1000000
  %24 = trunc nuw nsw i64 %23 to i32
  %25 = tail call i32 (ptr, i64, ptr, ...) @snprintf(ptr noundef %.041, i64 noundef %.040, ptr noundef nonnull @.str.63, i64 noundef %16, i32 noundef %19, i32 noundef %22, i32 noundef %24) #18
  br label %39

26:                                               ; preds = %13
  %27 = icmp samesign ugt i64 %.039, 60000000
  %.lhs.trunc = trunc nuw i64 %.039 to i32
  br i1 %27, label %28, label %35

28:                                               ; preds = %26
  %29 = udiv i32 %.lhs.trunc, 60000000
  %30 = udiv i32 %.lhs.trunc, 1000000
  %.lhs.trunc47 = trunc nuw nsw i32 %30 to i16
  %31 = urem i16 %.lhs.trunc47, 60
  %32 = zext nneg i16 %31 to i32
  %33 = urem i32 %.lhs.trunc, 1000000
  %34 = tail call i32 (ptr, i64, ptr, ...) @snprintf(ptr noundef %.041, i64 noundef %.040, ptr noundef nonnull @.str.64, i32 noundef %29, i32 noundef %32, i32 noundef %33) #18
  br label %39

35:                                               ; preds = %26
  %36 = udiv i32 %.lhs.trunc, 1000000
  %37 = urem i32 %.lhs.trunc, 1000000
  %38 = tail call i32 (ptr, i64, ptr, ...) @snprintf(ptr noundef %.041, i64 noundef %.040, ptr noundef nonnull @.str.65, i32 noundef %36, i32 noundef %37) #18
  br label %39

39:                                               ; preds = %11, %28, %35, %15, %9
  %40 = tail call i64 @strlen(ptr noundef nonnull dereferenceable(1) %.041) #19
  %.not = icmp eq i64 %40, 0
  br i1 %.not, label %.critedge44, label %.lr.ph.preheader

.lr.ph.preheader:                                 ; preds = %39
  %41 = getelementptr inbounds nuw i8, ptr %.041, i64 %40
  br label %.lr.ph

.lr.ph:                                           ; preds = %.lr.ph.preheader, %44
  %.055 = phi ptr [ %42, %44 ], [ %41, %.lr.ph.preheader ]
  %42 = getelementptr inbounds i8, ptr %.055, i64 -1
  %43 = load i8, ptr %42, align 1, !tbaa !29
  switch i8 %43, label %.critedge44 [
    i8 48, label %44
    i8 46, label %46
  ]

44:                                               ; preds = %.lr.ph
  store i8 0, ptr %42, align 1, !tbaa !29
  %45 = icmp ugt ptr %42, %.041
  br i1 %45, label %.lr.ph, label %.critedge44, !llvm.loop !114

46:                                               ; preds = %.lr.ph
  store i8 0, ptr %42, align 1, !tbaa !29
  br label %.critedge44

.critedge44:                                      ; preds = %44, %.lr.ph, %39, %46
  ret void
}